(lp0
c__builtin__
set
p1
((lp2
S'HAY'
p3
aS'PAY'
p4
aS'WIN'
p5
aS'SAW'
p6
aS'WHY'
p7
atp8
Rp9
ag1
((lp10
S'BOX'
p11
aS'ZIG'
p12
aS'VAN'
p13
aS'OAR'
p14
aS'PAW'
p15
aS'EGO'
p16
atp17
Rp18
ag1
((lp19
S'BRO'
p20
aS'EYE'
p21
aS'SUN'
p22
aS'HIT'
p23
aS'EON'
p24
aS'POP'
p25
atp26
Rp27
ag1
((lp28
g23
ag22
aS'TUB'
p29
aS'DIG'
p30
aS'SKY'
p31
atp32
Rp33
ag1
((lp34
S'TUX'
p35
aS'SKY'
p36
aS'EYE'
p37
aS'SUN'
p38
aS'GAS'
p39
aS'FOX'
p40
atp41
Rp42
ag1
((lp43
S'BOY'
p44
aS'ASK'
p45
ag36
aS'TUB'
p46
ag40
aS'ORC'
p47
atp48
Rp49
ag1
((lp50
S'FLY'
p51
aS'MIX'
p52
aS'OAR'
p53
aS'ALA'
p54
atp55
Rp56
ag1
((lp57
g51
ag12
aS'SAY'
p58
ag53
aS'WIZ'
p59
atp60
Rp61
ag1
((lp62
S'HOT'
p63
aS'OLD'
p64
aS'YAK'
p65
aS'PRO'
p66
aS'LAB'
p67
atp68
Rp69
ag1
((lp70
S'LAM'
p71
aS'ART'
p72
aS'FIG'
p73
ag65
aS'ASH'
p74
ag67
atp75
Rp76
ag1
((lp77
S'DUH'
p78
aS'TRY'
p79
aS'FOG'
p80
aS'JUG'
p81
aS'MOP'
p82
aS'RIB'
p83
atp84
Rp85
ag1
((lp86
g78
aS'FAN'
p87
aS'HAM'
p88
ag82
aS'ZZZ'
p89
atp90
Rp91
ag1
((lp92
S'HIP'
p93
aS'ALL'
p94
aS'FOR'
p95
aS'EGG'
p96
aS'SAD'
p97
atp98
Rp99
ag1
((lp100
g93
aS'WIG'
p101
aS'USE'
p102
aS'KEY'
p103
aS'NEW'
p104
ag97
atp105
Rp106
ag1
((lp107
S'HOT'
p108
aS'JAM'
p109
ag64
aS'ZOO'
p110
aS'EVE'
p111
aS'FAX'
p112
atp113
Rp114
ag1
((lp115
S'FLY'
p116
aS'DRY'
p117
aS'INK'
p118
aS'SHY'
p119
ag54
atp120
Rp121
ag1
((lp122
S'PHI'
p123
aS'JAM'
p124
aS'MOO'
p125
ag110
aS'WAS'
p126
aS'GEL'
p127
atp128
Rp129
ag1
((lp130
S'MOO'
p131
aS'FOR'
p132
aS'OAK'
p133
aS'ROB'
p134
aS'EGG'
p135
aS'GEL'
p136
atp137
Rp138
ag1
((lp139
S'RAW'
p140
aS'ASK'
p141
aS'JOY'
p142
ag46
aS'DIG'
p143
aS'FRO'
p144
atp145
Rp146
ag1
((lp147
S'ART'
p148
aS'MAD'
p149
aS'CHI'
p150
aS'KIT'
p151
atp152
Rp153
ag1
((lp154
g148
ag149
ag74
aS'ICE'
p155
aS'HAM'
p156
atp157
Rp158
ag1
((lp159
S'MAC'
p160
aS'AHI'
p161
aS'EON'
p162
aS'POP'
p163
aS'IRE'
p164
atp165
Rp166
ag1
((lp167
S'JOB'
p168
aS'TOY'
p169
aS'JUG'
p170
ag161
ag162
atp171
Rp172
ag1
((lp173
S'BAR'
p174
aS'ONO'
p175
ag150
aS'DOG'
p176
aS'KIT'
p177
atp178
Rp179
ag1
((lp180
g112
aS'KEG'
p181
aS'WAS'
p182
aS'ZOO'
p183
aS'ODD'
p184
aS'AIR'
p185
atp186
Rp187
ag1
((lp188
S'PHI'
p189
ag181
aS'SAW'
p190
ag182
aS'WHY'
p191
atp192
Rp193
ag1
((lp194
g94
ag73
aS'YAK'
p195
aS'PRO'
p196
aS'KEY'
p197
aS'SAD'
p198
atp199
Rp200
ag1
((lp201
S'ALL'
p202
aS'JAM'
p203
ag125
ag196
ag135
ag63
atp204
Rp205
ag1
((lp206
g52
ag118
aS'MAY'
p207
aS'HEX'
p208
aS'ALA'
p209
atp210
Rp211
ag1
((lp212
S'RAW'
p213
aS'RAD'
p214
aS'OVA'
p215
aS'LEG'
p216
aS'JOY'
p217
aS'BIO'
p218
atp219
Rp220
ag1
((lp221
S'DRY'
p222
aS'FLY'
p223
aS'FAN'
p224
aS'ZZZ'
p225
aS'FUN'
p226
aS'WIZ'
p227
atp228
Rp229
ag1
((lp230
g222
aS'SHY'
p231
ag226
aS'BOA'
p232
aS'NAY'
p233
atp234
Rp235
ag1
((lp236
S'BIO'
p237
ag214
aS'GAL'
p238
aS'DUB'
p239
aS'ARM'
p240
aS'WAR'
p241
atp242
Rp243
ag1
((lp244
S'JOB'
p245
aS'TOY'
p246
aS'BOA'
p247
ag239
aS'NAY'
p248
ag241
atp249
Rp250
ag1
((lp251
S'WIG'
p252
aS'USE'
p253
aS'ONO'
p254
aS'KIT'
p255
atp256
Rp257
ag1
((lp258
S'SAY'
p259
ag89
ag59
aS'ICE'
p260
aS'HAM'
p261
atp262
Rp263
ag1
((lp264
S'FEW'
p265
aS'GAL'
p266
ag232
aS'SHY'
p267
aS'WAR'
p268
atp269
Rp270
ag1
((lp271
S'TUX'
p272
aS'KEG'
p273
aS'PAY'
p274
ag39
aS'ODD'
p275
ag7
atp276
Rp277
ag1
((lp278
S'JOB'
p279
aS'MOP'
p280
ag224
ag81
aS'FUN'
p281
ag248
atp282
Rp283
ag1
((lp284
S'BRO'
p285
ag218
aS'HIT'
p286
ag142
ag30
aS'ARM'
p287
atp288
Rp289
ag1
((lp290
S'AIM'
p291
aS'MIX'
p292
aS'EGO'
p293
aS'OAR'
p294
atp295
Rp296
ag1
((lp297
S'SAY'
p298
aS'MAD'
p299
aS'PAW'
p300
aS'CHI'
p301
aS'DOG'
p302
ag260
atp303
Rp304
ag1
((lp305
g252
ag72
aS'FIG'
p306
ag197
ag151
atp307
Rp308
ag1
((lp309
g123
aS'AMP'
p310
aS'ROB'
p311
aS'SAW'
p312
aS'GEL'
p313
atp314
Rp315
ag1
((lp316
S'TUX'
p317
ag44
ag4
aS'WIN'
p318
aS'FOX'
p319
aS'BAH'
p320
atp321
Rp322
ag1
((lp323
S'MAC'
p324
ag37
aS'GAS'
p325
ag184
ag25
aS'AIR'
p326
atp327
Rp328
ag1
((lp329
S'ZIG'
p330
aS'SAY'
p331
ag300
atp332
Rp333
ag1
((lp334
S'TRY'
p335
aS'LAM'
p336
aS'FOG'
p337
aS'OLD'
p338
aS'LAB'
p339
atp340
Rp341
ag1
((lp342
g335
ag336
ag156
aS'ASH'
p343
aS'DUH'
p344
atp345
Rp346
ag1
((lp347
g80
ag338
aS'RIB'
p348
aS'IRE'
p349
aS'EVE'
p350
atp351
Rp352
ag1
((lp353
g170
aS'AHI'
p354
ag348
ag349
atp355
Rp356
ag1
((lp357
g20
aS'TOY'
p358
aS'DUB'
p359
aS'EON'
p360
ag240
atp361
Rp362
ag1
((lp363
S'FAX'
p364
aS'IRE'
p365
aS'AIR'
p366
ag160
ag111
atp367
Rp368
ag1
((lp369
S'BAR'
p370
aS'PAW'
p371
aS'VAN'
p372
aS'FLU'
p373
ag302
atp374
Rp375
a.